target datalayout = "e-m:e-p270:32:32-p271:32:32-p272:64:64-i64:64-i128:128-f80:128-n8:16:32:64-S128"
target triple = "x86_64-pc-linux-gnu"

%struct.dictType = type { ptr, ptr, ptr, ptr, ptr, ptr, ptr, ptr, ptr, ptr, ptr, i8, ptr, ptr, ptr }
%struct.dict = type { ptr, [2 x ptr], [2 x i64], i64, i16, [2 x i8], i16, [0 x ptr] }
%struct.dictEntry = type { ptr, %union.anon, ptr }
%union.anon = type { ptr }
%struct.dictEntryNoValue = type { ptr, ptr }

@.str.1 = private unnamed_addr constant [7 x i8] c"dict.c\00", align 1
@.str.5 = private unnamed_addr constant [107 x i8] c"bucket >= &d->ht_table[htidx][0] && bucket <= &d->ht_table[htidx][DICTHT_SIZE_MASK(d->ht_size_exp[htidx])]\00", align 1
@.str.6 = private unnamed_addr constant [18 x i8] c"entryIsKey(entry)\00", align 1
@.str.7 = private unnamed_addr constant [21 x i8] c"entryIsNormal(entry)\00", align 1
@.str.20 = private unnamed_addr constant [39 x i8] c"((uintptr_t)ptr & ENTRY_PTR_MASK) == 0\00", align 1

; Function Attrs: inlinehint nounwind uwtable
define internal i32 @entryIsNormal(ptr noundef %0) #11 {
  %2 = alloca ptr, align 8
  store ptr %0, ptr %2, align 8, !tbaa !36
  %3 = load ptr, ptr %2, align 8, !tbaa !36
  %4 = ptrtoint ptr %3 to i64
  %5 = and i64 %4, 7
  %6 = icmp eq i64 %5, 0
  %7 = zext i1 %6 to i32
  ret i32 %7
}

; Function Attrs: inlinehint nounwind uwtable
define internal ptr @createEntryNoValue(ptr noundef %0, ptr noundef %1) #11 {
  %3 = alloca ptr, align 8
  %4 = alloca ptr, align 8
  %5 = alloca ptr, align 8
  store ptr %0, ptr %3, align 8, !tbaa !10
  store ptr %1, ptr %4, align 8, !tbaa !36
  call void @llvm.lifetime.start.p0(i64 8, ptr %5) #14
  %6 = call noalias ptr @zmalloc(i64 noundef 16) #15
  store ptr %6, ptr %5, align 8, !tbaa !10
  %7 = load ptr, ptr %3, align 8, !tbaa !10
  %8 = load ptr, ptr %5, align 8, !tbaa !10
  %9 = getelementptr inbounds nuw %struct.dictEntryNoValue, ptr %8, i32 0, i32 0
  store ptr %7, ptr %9, align 8, !tbaa !54
  %10 = load ptr, ptr %4, align 8, !tbaa !36
  %11 = load ptr, ptr %5, align 8, !tbaa !10
  %12 = getelementptr inbounds nuw %struct.dictEntryNoValue, ptr %11, i32 0, i32 1
  store ptr %10, ptr %12, align 8, !tbaa !56
  %13 = load ptr, ptr %5, align 8, !tbaa !10
  %14 = ptrtoint ptr %13 to i64
  %15 = or i64 %14, 4
  %16 = inttoptr i64 %15 to ptr
  call void @llvm.lifetime.end.p0(i64 8, ptr %5) #14
  ret ptr %16
}

; Function Attrs: inlinehint nounwind uwtable
define internal ptr @encodeMaskedPtr(ptr noundef %0, i32 noundef %1) #11 {
  %3 = alloca ptr, align 8
  %4 = alloca i32, align 4
  store ptr %0, ptr %3, align 8, !tbaa !10
  store i32 %1, ptr %4, align 4, !tbaa !29
  %5 = load ptr, ptr %3, align 8, !tbaa !10
  %6 = ptrtoint ptr %5 to i64
  %7 = and i64 %6, 7
  %8 = icmp eq i64 %7, 0
  %9 = xor i1 %8, true
  %10 = xor i1 %9, true
  %11 = zext i1 %10 to i32
  %12 = sext i32 %11 to i64
  %13 = call i64 @llvm.expect.i64(i64 %12, i64 1)
  %14 = icmp ne i64 %13, 0
  br i1 %14, label %15, label %16

15:                                               ; preds = %2
  br label %18

16:                                               ; preds = %2
  call void @_serverAssert(ptr noundef @.str.20, ptr noundef @.str.1, i32 noundef 156)
  call void @abort() #17
  unreachable

17:                                               ; No predecessors!
  br label %18

18:                                               ; preds = %17, %15
  %19 = load ptr, ptr %3, align 8, !tbaa !10
  %20 = ptrtoint ptr %19 to i64
  %21 = load i32, ptr %4, align 4, !tbaa !29
  %22 = zext i32 %21 to i64
  %23 = or i64 %20, %22
  %24 = inttoptr i64 %23 to ptr
  ret ptr %24
}

; Function Attrs: inlinehint nounwind uwtable
define internal i32 @entryIsKey(ptr noundef %0) #11 {
  %2 = alloca ptr, align 8
  store ptr %0, ptr %2, align 8, !tbaa !36
  %3 = load ptr, ptr %2, align 8, !tbaa !36
  %4 = ptrtoint ptr %3 to i64
  %5 = and i64 %4, 3
  %6 = trunc i64 %5 to i32
  ret i32 %6
}

; Function Attrs: nounwind uwtable
define dso_local ptr @dictInsertAtPosition(ptr noundef %0, ptr noundef %1, ptr noundef %2) #0 {
  %4 = alloca ptr, align 8
  %5 = alloca ptr, align 8
  %6 = alloca ptr, align 8
  %7 = alloca ptr, align 8
  %8 = alloca ptr, align 8
  %9 = alloca i32, align 4
  store ptr %0, ptr %4, align 8, !tbaa !18
  store ptr %1, ptr %5, align 8, !tbaa !10
  store ptr %2, ptr %6, align 8, !tbaa !10
  call void @llvm.lifetime.start.p0(i64 8, ptr %7) #14
  %10 = load ptr, ptr %6, align 8, !tbaa !10
  store ptr %10, ptr %7, align 8, !tbaa !30
  call void @llvm.lifetime.start.p0(i64 8, ptr %8) #14
  call void @llvm.lifetime.start.p0(i64 4, ptr %9) #14
  %11 = load ptr, ptr %4, align 8, !tbaa !18
  %12 = getelementptr inbounds nuw %struct.dict, ptr %11, i32 0, i32 3
  %13 = load i64, ptr %12, align 8, !tbaa !11
  %14 = icmp ne i64 %13, -1
  %15 = select i1 %14, i32 1, i32 0
  store i32 %15, ptr %9, align 4, !tbaa !29
  %16 = load ptr, ptr %7, align 8, !tbaa !30
  %17 = load ptr, ptr %4, align 8, !tbaa !18
  %18 = getelementptr inbounds nuw %struct.dict, ptr %17, i32 0, i32 1
  %19 = load i32, ptr %9, align 4, !tbaa !29
  %20 = sext i32 %19 to i64
  %21 = getelementptr inbounds [2 x ptr], ptr %18, i64 0, i64 %20
  %22 = load ptr, ptr %21, align 8, !tbaa !30
  %23 = getelementptr inbounds ptr, ptr %22, i64 0
  %24 = icmp uge ptr %16, %23
  br i1 %24, label %25, label %69

25:                                               ; preds = %3
  %26 = load ptr, ptr %7, align 8, !tbaa !30
  %27 = load ptr, ptr %4, align 8, !tbaa !18
  %28 = getelementptr inbounds nuw %struct.dict, ptr %27, i32 0, i32 1
  %29 = load i32, ptr %9, align 4, !tbaa !29
  %30 = sext i32 %29 to i64
  %31 = getelementptr inbounds [2 x ptr], ptr %28, i64 0, i64 %30
  %32 = load ptr, ptr %31, align 8, !tbaa !30
  %33 = load ptr, ptr %4, align 8, !tbaa !18
  %34 = getelementptr inbounds nuw %struct.dict, ptr %33, i32 0, i32 5
  %35 = load i32, ptr %9, align 4, !tbaa !29
  %36 = sext i32 %35 to i64
  %37 = getelementptr inbounds [2 x i8], ptr %34, i64 0, i64 %36
  %38 = load i8, ptr %37, align 1, !tbaa !25
  %39 = sext i8 %38 to i32
  %40 = icmp eq i32 %39, -1
  br i1 %40, label %41, label %42

41:                                               ; preds = %25
  br label %65

42:                                               ; preds = %25
  %43 = load ptr, ptr %4, align 8, !tbaa !18
  %44 = getelementptr inbounds nuw %struct.dict, ptr %43, i32 0, i32 5
  %45 = load i32, ptr %9, align 4, !tbaa !29
  %46 = sext i32 %45 to i64
  %47 = getelementptr inbounds [2 x i8], ptr %44, i64 0, i64 %46
  %48 = load i8, ptr %47, align 1, !tbaa !25
  %49 = sext i8 %48 to i32
  %50 = icmp eq i32 %49, -1
  br i1 %50, label %51, label %52

51:                                               ; preds = %42
  br label %62

52:                                               ; preds = %42
  %53 = load ptr, ptr %4, align 8, !tbaa !18
  %54 = getelementptr inbounds nuw %struct.dict, ptr %53, i32 0, i32 5
  %55 = load i32, ptr %9, align 4, !tbaa !29
  %56 = sext i32 %55 to i64
  %57 = getelementptr inbounds [2 x i8], ptr %54, i64 0, i64 %56
  %58 = load i8, ptr %57, align 1, !tbaa !25
  %59 = sext i8 %58 to i32
  %60 = zext i32 %59 to i64
  %61 = shl i64 1, %60
  br label %62

62:                                               ; preds = %52, %51
  %63 = phi i64 [ 0, %51 ], [ %61, %52 ]
  %64 = sub i64 %63, 1
  br label %65

65:                                               ; preds = %62, %41
  %66 = phi i64 [ 0, %41 ], [ %64, %62 ]
  %67 = getelementptr inbounds nuw ptr, ptr %32, i64 %66
  %68 = icmp ule ptr %26, %67
  br label %69

69:                                               ; preds = %65, %3
  %70 = phi i1 [ false, %3 ], [ %68, %65 ]
  %71 = xor i1 %70, true
  %72 = xor i1 %71, true
  %73 = zext i1 %72 to i32
  %74 = sext i32 %73 to i64
  %75 = call i64 @llvm.expect.i64(i64 %74, i64 1)
  %76 = icmp ne i64 %75, 0
  br i1 %76, label %77, label %78

77:                                               ; preds = %69
  br label %80

78:                                               ; preds = %69
  call void @_serverAssert(ptr noundef @.str.5, ptr noundef @.str.1, i32 noundef 563)
  call void @abort() #17
  unreachable

79:                                               ; No predecessors!
  br label %80

80:                                               ; preds = %79, %77
  %81 = load ptr, ptr %4, align 8, !tbaa !18
  %82 = getelementptr inbounds nuw %struct.dict, ptr %81, i32 0, i32 0
  %83 = load ptr, ptr %82, align 8, !tbaa !13
  %84 = getelementptr inbounds nuw %struct.dictType, ptr %83, i32 0, i32 11
  %85 = load i8, ptr %84, align 8
  %86 = and i8 %85, 1
  %87 = zext i8 %86 to i32
  %88 = icmp ne i32 %87, 0
  br i1 %88, label %89, label %128

89:                                               ; preds = %80
  %90 = load ptr, ptr %7, align 8, !tbaa !30
  %91 = load ptr, ptr %90, align 8, !tbaa !36
  %92 = icmp ne ptr %91, null
  br i1 %92, label %122, label %93

93:                                               ; preds = %89
  %94 = load ptr, ptr %4, align 8, !tbaa !18
  %95 = getelementptr inbounds nuw %struct.dict, ptr %94, i32 0, i32 0
  %96 = load ptr, ptr %95, align 8, !tbaa !13
  %97 = getelementptr inbounds nuw %struct.dictType, ptr %96, i32 0, i32 11
  %98 = load i8, ptr %97, align 8
  %99 = lshr i8 %98, 1
  %100 = and i8 %99, 1
  %101 = zext i8 %100 to i32
  %102 = icmp ne i32 %101, 0
  br i1 %102, label %103, label %118

103:                                              ; preds = %93
  %104 = load ptr, ptr %5, align 8, !tbaa !10
  store ptr %104, ptr %8, align 8, !tbaa !36
  %105 = load ptr, ptr %8, align 8, !tbaa !36
  %106 = call i32 @entryIsKey(ptr noundef %105)
  %107 = icmp ne i32 %106, 0
  %108 = xor i1 %107, true
  %109 = xor i1 %108, true
  %110 = zext i1 %109 to i32
  %111 = sext i32 %110 to i64
  %112 = call i64 @llvm.expect.i64(i64 %111, i64 1)
  %113 = icmp ne i64 %112, 0
  br i1 %113, label %114, label %115

114:                                              ; preds = %103
  br label %117

115:                                              ; preds = %103
  call void @_serverAssert(ptr noundef @.str.6, ptr noundef @.str.1, i32 noundef 571)
  call void @abort() #17
  unreachable

116:                                              ; No predecessors!
  br label %117

117:                                              ; preds = %116, %114
  br label %121

118:                                              ; preds = %93
  %119 = load ptr, ptr %5, align 8, !tbaa !10
  %120 = call ptr @encodeMaskedPtr(ptr noundef %119, i32 noundef 2)
  store ptr %120, ptr %8, align 8, !tbaa !36
  br label %121

121:                                              ; preds = %118, %117
  br label %127

122:                                              ; preds = %89
  %123 = load ptr, ptr %5, align 8, !tbaa !10
  %124 = load ptr, ptr %7, align 8, !tbaa !30
  %125 = load ptr, ptr %124, align 8, !tbaa !36
  %126 = call ptr @createEntryNoValue(ptr noundef %123, ptr noundef %125)
  store ptr %126, ptr %8, align 8, !tbaa !36
  br label %127

127:                                              ; preds = %122, %121
  br label %150

128:                                              ; preds = %80
  %129 = call noalias ptr @zmalloc(i64 noundef 24) #15
  store ptr %129, ptr %8, align 8, !tbaa !36
  %130 = load ptr, ptr %8, align 8, !tbaa !36
  %131 = call i32 @entryIsNormal(ptr noundef %130)
  %132 = icmp ne i32 %131, 0
  %133 = xor i1 %132, true
  %134 = xor i1 %133, true
  %135 = zext i1 %134 to i32
  %136 = sext i32 %135 to i64
  %137 = call i64 @llvm.expect.i64(i64 %136, i64 1)
  %138 = icmp ne i64 %137, 0
  br i1 %138, label %139, label %140

139:                                              ; preds = %128
  br label %142

140:                                              ; preds = %128
  call void @_serverAssert(ptr noundef @.str.7, ptr noundef @.str.1, i32 noundef 586)
  call void @abort() #17
  unreachable

141:                                              ; No predecessors!
  br label %142

142:                                              ; preds = %141, %139
  %143 = load ptr, ptr %5, align 8, !tbaa !10
  %144 = load ptr, ptr %8, align 8, !tbaa !36
  %145 = getelementptr inbounds nuw %struct.dictEntry, ptr %144, i32 0, i32 0
  store ptr %143, ptr %145, align 8, !tbaa !51
  %146 = load ptr, ptr %7, align 8, !tbaa !30
  %147 = load ptr, ptr %146, align 8, !tbaa !36
  %148 = load ptr, ptr %8, align 8, !tbaa !36
  %149 = getelementptr inbounds nuw %struct.dictEntry, ptr %148, i32 0, i32 2
  store ptr %147, ptr %149, align 8, !tbaa !53
  br label %150

150:                                              ; preds = %142, %127
  %151 = load ptr, ptr %8, align 8, !tbaa !36
  %152 = load ptr, ptr %7, align 8, !tbaa !30
  store ptr %151, ptr %152, align 8, !tbaa !36
  %153 = load ptr, ptr %4, align 8, !tbaa !18
  %154 = getelementptr inbounds nuw %struct.dict, ptr %153, i32 0, i32 2
  %155 = load i32, ptr %9, align 4, !tbaa !29
  %156 = sext i32 %155 to i64
  %157 = getelementptr inbounds [2 x i64], ptr %154, i64 0, i64 %156
  %158 = load i64, ptr %157, align 8, !tbaa !11
  %159 = add i64 %158, 1
  store i64 %159, ptr %157, align 8, !tbaa !11
  %160 = load ptr, ptr %8, align 8, !tbaa !36
  call void @llvm.lifetime.end.p0(i64 4, ptr %9) #14
  call void @llvm.lifetime.end.p0(i64 8, ptr %8) #14
  call void @llvm.lifetime.end.p0(i64 8, ptr %7) #14
  ret ptr %160
}