; Function Attrs: nounwind uwtable
define dso_local ptr @dictInsertAtPosition(ptr noundef captures(none) %0, ptr noundef %1, ptr noundef captures(address) %2) local_unnamed_addr #3 {
  %4 = getelementptr inbounds nuw i8, ptr %0, i64 40
  %5 = load i64, ptr %4, align 8, !tbaa !14
  %.not = icmp ne i64 %5, -1
  %6 = getelementptr inbounds nuw i8, ptr %0, i64 8
  %7 = zext i1 %.not to i64
  %8 = getelementptr inbounds nuw [2 x ptr], ptr %6, i64 0, i64 %7
  %9 = load ptr, ptr %8, align 8, !tbaa !11
  %.not35 = icmp ult ptr %2, %9
  br i1 %.not35, label %.critedge, label %10, !prof !43

10:                                               ; preds = %3
  %11 = getelementptr inbounds nuw i8, ptr %0, i64 50
  %12 = getelementptr inbounds nuw [2 x i8], ptr %11, i64 0, i64 %7
  %13 = load i8, ptr %12, align 1, !tbaa !13
  %14 = sext i8 %13 to i64
  %15 = icmp eq i8 %13, -1
  %16 = and i64 %14, 4294967295
  %notmask = shl nsw i64 -1, %16
  %17 = xor i64 %notmask, -1
  %18 = select i1 %15, i64 0, i64 %17
  %19 = getelementptr inbounds nuw ptr, ptr %9, i64 %18
  %.not41 = icmp ugt ptr %2, %19
  br i1 %.not41, label %.critedge, label %20, !prof !43

.critedge:                                        ; preds = %3, %10
  tail call void @_serverAssert(ptr noundef nonnull @.str.5, ptr noundef nonnull @.str.1, i32 noundef 563) #25
  tail call void @abort() #27
  unreachable

20:                                               ; preds = %10
  %21 = load ptr, ptr %0, align 8, !tbaa !16
  %22 = getelementptr inbounds nuw i8, ptr %21, i64 88
  %23 = load i8, ptr %22, align 8
  %24 = and i8 %23, 1
  %.not36 = icmp eq i8 %24, 0
  br i1 %.not36, label %45, label %25

25:                                               ; preds = %20
  %26 = load ptr, ptr %2, align 8, !tbaa !31
  %.not38 = icmp eq ptr %26, null
  br i1 %.not38, label %27, label %39

27:                                               ; preds = %25
  %28 = and i8 %23, 2
  %.not39 = icmp eq i8 %28, 0
  %29 = ptrtoint ptr %1 to i64
  br i1 %.not39, label %33, label %30

30:                                               ; preds = %27
  %31 = and i64 %29, 3
  %.not40 = icmp eq i64 %31, 0
  br i1 %.not40, label %32, label %53, !prof !43

32:                                               ; preds = %30
  tail call void @_serverAssert(ptr noundef nonnull @.str.6, ptr noundef nonnull @.str.1, i32 noundef 571) #25
  tail call void @abort() #27
  unreachable

33:                                               ; preds = %27
  %34 = and i64 %29, 7
  %35 = icmp eq i64 %34, 0
  br i1 %35, label %encodeMaskedPtr.exit, label %36, !prof !25

36:                                               ; preds = %33
  tail call void @_serverAssert(ptr noundef nonnull @.str.20, ptr noundef nonnull @.str.1, i32 noundef 156) #25
  tail call void @abort() #27
  unreachable

encodeMaskedPtr.exit:                             ; preds = %33
  %37 = or disjoint i64 %29, 2
  %38 = inttoptr i64 %37 to ptr
  br label %53

39:                                               ; preds = %25
  %40 = tail call noalias dereferenceable_or_null(16) ptr @zmalloc(i64 noundef 16) #26
  store ptr %1, ptr %40, align 8, !tbaa !39
  %41 = getelementptr inbounds nuw i8, ptr %40, i64 8
  store ptr %26, ptr %41, align 8, !tbaa !35
  %42 = ptrtoint ptr %40 to i64
  %43 = or i64 %42, 4
  %44 = inttoptr i64 %43 to ptr
  br label %53

45:                                               ; preds = %20
  %46 = tail call noalias dereferenceable_or_null(24) ptr @zmalloc(i64 noundef 24) #26
  %47 = ptrtoint ptr %46 to i64
  %48 = and i64 %47, 7
  %.not42 = icmp eq i64 %48, 0
  br i1 %.not42, label %50, label %49, !prof !25

49:                                               ; preds = %45
  tail call void @_serverAssert(ptr noundef nonnull @.str.7, ptr noundef nonnull @.str.1, i32 noundef 586) #25
  tail call void @abort() #27
  unreachable

50:                                               ; preds = %45
  store ptr %1, ptr %46, align 8, !tbaa !40
  %51 = load ptr, ptr %2, align 8, !tbaa !31
  %52 = getelementptr inbounds nuw i8, ptr %46, i64 16
  store ptr %51, ptr %52, align 8, !tbaa !37
  br label %53

53:                                               ; preds = %39, %30, %encodeMaskedPtr.exit, %50
  %.0 = phi ptr [ %44, %39 ], [ %1, %30 ], [ %38, %encodeMaskedPtr.exit ], [ %46, %50 ]
  store ptr %.0, ptr %2, align 8, !tbaa !31
  %54 = getelementptr inbounds nuw i8, ptr %0, i64 24
  %55 = getelementptr inbounds nuw [2 x i64], ptr %54, i64 0, i64 %7
  %56 = load i64, ptr %55, align 8, !tbaa !14
  %57 = add i64 %56, 1
  store i64 %57, ptr %55, align 8, !tbaa !14
  ret ptr %.0
}